; Function Attrs: nounwind uwtable
define internal ptr @fire_event_stop_iteration(ptr readnone captures(none) %0, ptr noundef %1) #0 {
  %3 = alloca ptr, align 8
  %4 = alloca i32, align 4
  %5 = alloca ptr, align 8
  call void @llvm.lifetime.start.p0(i64 8, ptr nonnull %3) #4
  call void @llvm.lifetime.start.p0(i64 4, ptr nonnull %4) #4
  call void @llvm.lifetime.start.p0(i64 8, ptr nonnull %5) #4
  %6 = call i32 (ptr, ptr, ...) @PyArg_ParseTuple(ptr noundef %1, ptr noundef nonnull @.str.35, ptr noundef nonnull %3, ptr noundef nonnull %4, ptr noundef nonnull %5) #4
  %.not = icmp eq i32 %6, 0
  br i1 %.not, label %46, label %7

7:                                                ; preds = %2
  %8 = load ptr, ptr %5, align 8, !tbaa !32
  %9 = icmp eq ptr %8, @_Py_NoneStruct
  br i1 %9, label %10, label %11

10:                                               ; preds = %7
  store ptr null, ptr %5, align 8, !tbaa !32
  br label %11

11:                                               ; preds = %10, %7
  %12 = phi ptr [ null, %10 ], [ %8, %7 ]
  %13 = load ptr, ptr %3, align 8, !tbaa !32
  %14 = load i32, ptr %4, align 4, !tbaa !29
  %15 = getelementptr i8, ptr %13, i64 8
  %.val14.i = load ptr, ptr %15, align 8, !tbaa !14
  %.not.i = icmp eq ptr %.val14.i, @PyCodeLike_Type
  br i1 %.not.i, label %20, label %setup_fire.exit.thread

setup_fire.exit.thread:                           ; preds = %11
  %16 = load ptr, ptr @PyExc_TypeError, align 8, !tbaa !32
  %17 = getelementptr inbounds nuw i8, ptr %.val14.i, i64 24
  %18 = load ptr, ptr %17, align 8, !tbaa !33
  %19 = call ptr (ptr, ptr, ...) @PyErr_Format(ptr noundef %16, ptr noundef nonnull @.str.32, ptr noundef %18) #4
  br label %46

20:                                               ; preds = %11
  %21 = icmp sgt i32 %14, -1
  br i1 %21, label %22, label %26

22:                                               ; preds = %20
  %23 = getelementptr inbounds nuw i8, ptr %13, i64 32
  %24 = load i32, ptr %23, align 8, !tbaa !24
  %25 = icmp slt i32 %14, %24
  br i1 %25, label %setup_fire.exit, label %26

26:                                               ; preds = %22, %20
  call void @__assert_fail(ptr noundef nonnull @.str.33, ptr noundef nonnull @.str.30, i32 noundef 120, ptr noundef nonnull @__PRETTY_FUNCTION__.setup_fire) #5
  unreachable

setup_fire.exit:                                  ; preds = %22
  %27 = getelementptr inbounds nuw i8, ptr %13, i64 16
  %28 = load ptr, ptr %27, align 8, !tbaa !6
  %29 = zext nneg i32 %14 to i64
  %30 = getelementptr %struct._PyMonitoringState, ptr %28, i64 %29
  %31 = icmp eq ptr %30, null
  br i1 %31, label %46, label %32

32:                                               ; preds = %setup_fire.exit
  %33 = load i8, ptr %30, align 1, !tbaa !27
  %.not.i13 = icmp eq i8 %33, 0
  br i1 %.not.i13, label %PyMonitoring_FireStopIterationEvent.exit.thread, label %PyMonitoring_FireStopIterationEvent.exit

PyMonitoring_FireStopIterationEvent.exit:         ; preds = %32
  %34 = call i32 @_PyMonitoring_FireStopIterationEvent(ptr noundef nonnull %30, ptr noundef nonnull %13, i32 noundef %14, ptr noundef %12) #4
  %35 = icmp eq i32 %34, -1
  br i1 %35, label %teardown_fire.exit.thread, label %PyMonitoring_FireStopIterationEvent.exit.thread

PyMonitoring_FireStopIterationEvent.exit.thread:  ; preds = %32, %PyMonitoring_FireStopIterationEvent.exit
  %36 = call ptr @PyErr_Occurred() #4
  %.not5.i = icmp eq ptr %36, null
  br i1 %.not5.i, label %teardown_fire.exit, label %37

37:                                               ; preds = %PyMonitoring_FireStopIterationEvent.exit.thread
  call void @__assert_fail(ptr noundef nonnull @.str.31, ptr noundef nonnull @.str.30, i32 noundef 141, ptr noundef nonnull @__PRETTY_FUNCTION__.teardown_fire) #5
  unreachable

teardown_fire.exit:                               ; preds = %PyMonitoring_FireStopIterationEvent.exit.thread
  call void @PyErr_Clear() #4
  %38 = load i8, ptr %30, align 1, !tbaa !27
  %39 = call ptr @PyErr_Occurred() #4
  %.not11 = icmp eq ptr %39, null
  br i1 %.not11, label %43, label %42

teardown_fire.exit.thread:                        ; preds = %PyMonitoring_FireStopIterationEvent.exit
  %40 = call ptr @PyErr_Occurred() #4
  %.not12 = icmp eq ptr %40, null
  br i1 %.not12, label %41, label %46

41:                                               ; preds = %teardown_fire.exit.thread
  call void @__assert_fail(ptr noundef nonnull @.str.29, ptr noundef nonnull @.str.30, i32 noundef 448, ptr noundef nonnull @__PRETTY_FUNCTION__.fire_event_stop_iteration) #5
  unreachable

42:                                               ; preds = %teardown_fire.exit
  call void @__assert_fail(ptr noundef nonnull @.str.31, ptr noundef nonnull @.str.30, i32 noundef 448, ptr noundef nonnull @__PRETTY_FUNCTION__.fire_event_stop_iteration) #5
  unreachable

43:                                               ; preds = %teardown_fire.exit
  %44 = zext i8 %38 to i64
  %45 = call ptr @PyLong_FromLong(i64 noundef %44) #4
  br label %46

46:                                               ; preds = %setup_fire.exit.thread, %setup_fire.exit, %teardown_fire.exit.thread, %43, %2
  %.0 = phi ptr [ null, %2 ], [ null, %setup_fire.exit ], [ %45, %43 ], [ null, %teardown_fire.exit.thread ], [ null, %setup_fire.exit.thread ]
  call void @llvm.lifetime.end.p0(i64 8, ptr nonnull %5) #4
  call void @llvm.lifetime.end.p0(i64 4, ptr nonnull %4) #4
  call void @llvm.lifetime.end.p0(i64 8, ptr nonnull %3) #4
  ret ptr %.0
}